; Function Attrs: mustprogress ssp uwtable
define void @_ZN6open3d13visualization10Visualizer21WindowRefreshCallbackEP10GLFWwindow(ptr noundef nonnull align 8 dereferenceable(456) %0, ptr noundef readnone captures(none) %1) unnamed_addr #4 align 2 {
  %3 = getelementptr inbounds nuw i8, ptr %0, i64 168
  %4 = load i8, ptr %3, align 8, !tbaa !38, !range !94, !noundef !95
  %5 = trunc nuw i8 %4 to i1
  br i1 %5, label %6, label %10

6:                                                ; preds = %2
  %7 = load ptr, ptr %0, align 8, !tbaa !96
  %8 = getelementptr inbounds nuw i8, ptr %7, i64 136
  %9 = load ptr, ptr %8, align 8
  tail call void %9(ptr noundef nonnull align 8 dereferenceable(456) %0, i1 noundef zeroext false)
  store i8 0, ptr %3, align 8, !tbaa !38
  br label %10

10:                                               ; preds = %6, %2
  ret void
}